target datalayout = "e-m:e-p270:32:32-p271:32:32-p272:64:64-i64:64-i128:128-f80:128-n8:16:32:64-S128"
target triple = "x86_64-unknown-linux-gnu"

; Function Attrs: inlinehint mustprogress nounwind uwtable
define linkonce_odr noundef double @_ZN8QuantLib7squaredIdEET_S1_(double noundef %x) #5 comdat {
entry:
  %x.addr = alloca double, align 8
  store double %x, ptr %x.addr, align 8, !tbaa !14
  %0 = load double, ptr %x.addr, align 8, !tbaa !14
  %1 = load double, ptr %x.addr, align 8, !tbaa !14
  %mul = fmul double %0, %1
  ret double %mul
}

; Function Attrs: mustprogress uwtable
define internal noundef double @_ZN8QuantLib12_GLOBAL__N_16phi_btEddddddd(double noundef %S, double noundef %gamma, double noundef %H, double noundef %I, double noundef %rT, double noundef %bT, double noundef %v) #2 {
entry:
  %S.addr = alloca double, align 8
  %gamma.addr = alloca double, align 8
  %H.addr = alloca double, align 8
  %I.addr = alloca double, align 8
  %rT.addr = alloca double, align 8
  %bT.addr = alloca double, align 8
  %v.addr = alloca double, align 8
  %lsh = alloca double, align 8
  %lis = alloca double, align 8
  %sv = alloca double, align 8
  store double %S, ptr %S.addr, align 8, !tbaa !14
  store double %gamma, ptr %gamma.addr, align 8, !tbaa !14
  store double %H, ptr %H.addr, align 8, !tbaa !14
  store double %I, ptr %I.addr, align 8, !tbaa !14
  store double %rT, ptr %rT.addr, align 8, !tbaa !14
  store double %bT, ptr %bT.addr, align 8, !tbaa !14
  store double %v, ptr %v.addr, align 8, !tbaa !14
  call void @llvm.lifetime.start.p0(i64 8, ptr %lsh) #14
  %0 = load double, ptr %S.addr, align 8, !tbaa !14
  %1 = load double, ptr %H.addr, align 8, !tbaa !14
  %div = fdiv double %0, %1
  %call = call double @log(double noundef %div) #14, !tbaa !25
  store double %call, ptr %lsh, align 8, !tbaa !14
  call void @llvm.lifetime.start.p0(i64 8, ptr %lis) #14
  %2 = load double, ptr %I.addr, align 8, !tbaa !14
  %3 = load double, ptr %S.addr, align 8, !tbaa !14
  %div1 = fdiv double %2, %3
  %call2 = call double @log(double noundef %div1) #14, !tbaa !25
  store double %call2, ptr %lis, align 8, !tbaa !14
  call void @llvm.lifetime.start.p0(i64 8, ptr %sv) #14
  %4 = load double, ptr %v.addr, align 8, !tbaa !14
  %call3 = call double @sqrt(double noundef %4) #14, !tbaa !25
  store double %call3, ptr %sv, align 8, !tbaa !14
  %5 = load double, ptr %bT.addr, align 8, !tbaa !14
  %6 = load double, ptr %gamma.addr, align 8, !tbaa !14
  %7 = load double, ptr %rT.addr, align 8, !tbaa !14
  %neg = fneg double %7
  %8 = call double @llvm.fmuladd.f64(double %5, double %6, double %neg)
  %9 = load double, ptr %gamma.addr, align 8, !tbaa !14
  %add = fadd double -1.000000e+00, %9
  %10 = load double, ptr %gamma.addr, align 8, !tbaa !14
  %mul = fmul double %add, %10
  %11 = load double, ptr %v.addr, align 8, !tbaa !14
  %mul4 = fmul double %mul, %11
  %div5 = fdiv double %mul4, 2.000000e+00
  %add6 = fadd double %8, %div5
  %call7 = call double @exp(double noundef %add6) #14, !tbaa !25
  %12 = load double, ptr %I.addr, align 8, !tbaa !14
  %13 = load double, ptr %bT.addr, align 8, !tbaa !14
  %14 = load double, ptr %v.addr, align 8, !tbaa !14
  %neg9 = fneg double %14
  %15 = call double @llvm.fmuladd.f64(double 2.000000e+00, double %13, double %neg9)
  %16 = load double, ptr %gamma.addr, align 8, !tbaa !14
  %mul10 = fmul double 2.000000e+00, %16
  %17 = load double, ptr %v.addr, align 8, !tbaa !14
  %18 = call double @llvm.fmuladd.f64(double %mul10, double %17, double %15)
  %19 = load double, ptr %lsh, align 8, !tbaa !14
  %20 = call double @llvm.fmuladd.f64(double 2.000000e+00, double %19, double %18)
  %call13 = call noundef double @_ZN8QuantLib7squaredIdEET_S1_(double noundef %20)
  %21 = load double, ptr %v.addr, align 8, !tbaa !14
  %mul14 = fmul double 8.000000e+00, %21
  %div15 = fdiv double %call13, %mul14
  %call16 = call double @exp(double noundef %div15) #14, !tbaa !25
  %div17 = fdiv double %12, %call16
  %fneg = fneg double %div17
  %22 = load double, ptr %I.addr, align 8, !tbaa !14
  %23 = load double, ptr %S.addr, align 8, !tbaa !14
  %div18 = fdiv double %22, %23
  %24 = load double, ptr %gamma.addr, align 8, !tbaa !14
  %25 = load double, ptr %bT.addr, align 8, !tbaa !14
  %26 = load double, ptr %v.addr, align 8, !tbaa !14
  %div19 = fdiv double %25, %26
  %add20 = fadd double %24, %div19
  %mul21 = fmul double 2.000000e+00, %add20
  %call22 = call double @pow(double noundef %div18, double noundef %mul21) #14, !tbaa !25
  %27 = load double, ptr %S.addr, align 8, !tbaa !14
  %mul23 = fmul double %call22, %27
  %28 = load double, ptr %bT.addr, align 8, !tbaa !14
  %29 = load double, ptr %v.addr, align 8, !tbaa !14
  %neg25 = fneg double %29
  %30 = call double @llvm.fmuladd.f64(double 2.000000e+00, double %28, double %neg25)
  %31 = load double, ptr %gamma.addr, align 8, !tbaa !14
  %mul26 = fmul double 2.000000e+00, %31
  %32 = load double, ptr %v.addr, align 8, !tbaa !14
  %33 = call double @llvm.fmuladd.f64(double %mul26, double %32, double %30)
  %34 = load double, ptr %lis, align 8, !tbaa !14
  %35 = call double @llvm.fmuladd.f64(double 4.000000e+00, double %34, double %33)
  %36 = load double, ptr %lsh, align 8, !tbaa !14
  %37 = call double @llvm.fmuladd.f64(double 2.000000e+00, double %36, double %35)
  %call30 = call noundef double @_ZN8QuantLib7squaredIdEET_S1_(double noundef %37)
  %38 = load double, ptr %v.addr, align 8, !tbaa !14
  %mul31 = fmul double 8.000000e+00, %38
  %div32 = fdiv double %call30, %mul31
  %call33 = call double @exp(double noundef %div32) #14, !tbaa !25
  %div34 = fdiv double %mul23, %call33
  %add35 = fadd double %fneg, %div34
  %mul36 = fmul double 0x3FF6A09E667F3BCD, %add35
  %39 = load double, ptr %sv, align 8, !tbaa !14
  %40 = load double, ptr %gamma.addr, align 8, !tbaa !14
  %41 = load double, ptr %I.addr, align 8, !tbaa !14
  %mul38 = fmul double %40, %41
  %call39 = call double @sqrt(double noundef 0x400921FB54442D18) #14, !tbaa !25
  %mul40 = fmul double %mul38, %call39
  %42 = load double, ptr %v.addr, align 8, !tbaa !14
  %mul41 = fmul double %mul40, %42
  %43 = load double, ptr %bT.addr, align 8, !tbaa !14
  %44 = load double, ptr %v.addr, align 8, !tbaa !14
  %neg43 = fneg double %44
  %45 = call double @llvm.fmuladd.f64(double 2.000000e+00, double %43, double %neg43)
  %46 = load double, ptr %gamma.addr, align 8, !tbaa !14
  %mul44 = fmul double 2.000000e+00, %46
  %47 = load double, ptr %v.addr, align 8, !tbaa !14
  %48 = call double @llvm.fmuladd.f64(double %mul44, double %47, double %45)
  %49 = load double, ptr %lsh, align 8, !tbaa !14
  %50 = call double @llvm.fmuladd.f64(double 2.000000e+00, double %49, double %48)
  %51 = load double, ptr %sv, align 8, !tbaa !14
  %mul47 = fmul double 0x4006A09E667F3BCD, %51
  %div48 = fdiv double %50, %mul47
  %call49 = call double @erfc(double noundef %div48) #14, !tbaa !25
  %mul50 = fmul double %mul41, %call49
  %52 = call double @llvm.fmuladd.f64(double %mul36, double %39, double %mul50)
  %53 = load double, ptr %I.addr, align 8, !tbaa !14
  %54 = load double, ptr %S.addr, align 8, !tbaa !14
  %div51 = fdiv double %53, %54
  %55 = load double, ptr %gamma.addr, align 8, !tbaa !14
  %56 = load double, ptr %bT.addr, align 8, !tbaa !14
  %57 = load double, ptr %v.addr, align 8, !tbaa !14
  %div52 = fdiv double %56, %57
  %add53 = fadd double %55, %div52
  %mul54 = fmul double 2.000000e+00, %add53
  %call55 = call double @pow(double noundef %div51, double noundef %mul54) #14, !tbaa !25
  %mul56 = fmul double 0x3FFC5BF891B4EF6B, %call55
  %58 = load double, ptr %S.addr, align 8, !tbaa !14
  %mul57 = fmul double %mul56, %58
  %59 = load double, ptr %bT.addr, align 8, !tbaa !14
  %60 = load double, ptr %v.addr, align 8, !tbaa !14
  %neg59 = fneg double %60
  %61 = call double @llvm.fmuladd.f64(double 2.000000e+00, double %59, double %neg59)
  %62 = load double, ptr %gamma.addr, align 8, !tbaa !14
  %mul60 = fmul double 2.000000e+00, %62
  %63 = load double, ptr %v.addr, align 8, !tbaa !14
  %64 = call double @llvm.fmuladd.f64(double %mul60, double %63, double %61)
  %65 = load double, ptr %lis, align 8, !tbaa !14
  %66 = call double @llvm.fmuladd.f64(double 4.000000e+00, double %65, double %64)
  %67 = load double, ptr %lsh, align 8, !tbaa !14
  %68 = call double @llvm.fmuladd.f64(double 2.000000e+00, double %67, double %66)
  %69 = load double, ptr %sv, align 8, !tbaa !14
  %mul64 = fmul double 0x4006A09E667F3BCD, %69
  %div65 = fdiv double %68, %mul64
  %call66 = call double @erfc(double noundef %div65) #14, !tbaa !25
  %mul67 = fmul double %mul57, %call66
  %70 = load double, ptr %gamma.addr, align 8, !tbaa !14
  %71 = load double, ptr %v.addr, align 8, !tbaa !14
  %72 = load double, ptr %lis, align 8, !tbaa !14
  %mul69 = fmul double 2.000000e+00, %72
  %73 = call double @llvm.fmuladd.f64(double %70, double %71, double %mul69)
  %neg71 = fneg double %mul67
  %74 = call double @llvm.fmuladd.f64(double %neg71, double %73, double %52)
  %mul72 = fmul double %call7, %74
  %75 = load double, ptr %I.addr, align 8, !tbaa !14
  %mul73 = fmul double 2.000000e+00, %75
  %call74 = call double @sqrt(double noundef 0x400921FB54442D18) #14, !tbaa !25
  %mul75 = fmul double %mul73, %call74
  %76 = load double, ptr %v.addr, align 8, !tbaa !14
  %mul76 = fmul double %mul75, %76
  %div77 = fdiv double %mul72, %mul76
  call void @llvm.lifetime.end.p0(i64 8, ptr %sv) #14
  call void @llvm.lifetime.end.p0(i64 8, ptr %lis) #14
  call void @llvm.lifetime.end.p0(i64 8, ptr %lsh) #14
  ret double %div77
}