; Function Attrs: mustprogress nounwind uwtable
define internal fastcc noundef double @_ZN8QuantLib12_GLOBAL__N_16phi_btEddddddd(double noundef %S, double noundef %gamma, double noundef %H, double noundef %I, double noundef %rT, double noundef %bT, double noundef %v) unnamed_addr #10 {
entry:
  %div = fdiv double %S, %H
  %call = tail call double @log(double noundef %div) #28, !tbaa !46
  %div1 = fdiv double %I, %S
  %call2 = tail call double @log(double noundef %div1) #28, !tbaa !46
  %call3 = tail call double @sqrt(double noundef %v) #28, !tbaa !46
  %neg = fneg double %rT
  %0 = tail call double @llvm.fmuladd.f64(double %bT, double %gamma, double %neg)
  %add = fadd double %gamma, -1.000000e+00
  %mul = fmul double %gamma, %add
  %mul4 = fmul double %mul, %v
  %div5 = fmul double %mul4, 5.000000e-01
  %add6 = fadd double %0, %div5
  %call7 = tail call double @exp(double noundef %add6) #28, !tbaa !46
  %neg9 = fneg double %v
  %1 = tail call double @llvm.fmuladd.f64(double %bT, double 2.000000e+00, double %neg9)
  %mul10 = fmul double %gamma, 2.000000e+00
  %2 = tail call double @llvm.fmuladd.f64(double %mul10, double %v, double %1)
  %3 = tail call double @llvm.fmuladd.f64(double %call, double 2.000000e+00, double %2)
  %mul.i = fmul double %3, %3
  %mul14 = fmul double %v, 8.000000e+00
  %div15 = fdiv double %mul.i, %mul14
  %call16 = tail call double @exp(double noundef %div15) #28, !tbaa !46
  %div19 = fdiv double %bT, %v
  %add20 = fadd double %gamma, %div19
  %mul21 = fmul double %add20, 2.000000e+00
  %call22 = tail call double @pow(double noundef %div1, double noundef %mul21) #28, !tbaa !46
  %mul23 = fmul double %S, %call22
  %4 = tail call double @llvm.fmuladd.f64(double %call2, double 4.000000e+00, double %2)
  %5 = tail call double @llvm.fmuladd.f64(double %call, double 2.000000e+00, double %4)
  %mul.i50 = fmul double %5, %5
  %div32 = fdiv double %mul.i50, %mul14
  %call33 = tail call double @exp(double noundef %div32) #28, !tbaa !46
  %div34 = fdiv double %mul23, %call33
  %6 = fdiv double %I, %call16
  %add35 = fsub double %div34, %6
  %mul36 = fmul double %add35, 0x3FF6A09E667F3BCD
  %mul38 = fmul double %gamma, %I
  %mul40 = fmul double %mul38, 0x3FFC5BF891B4EF6A
  %mul41 = fmul double %mul40, %v
  %mul47 = fmul double %call3, 0x4006A09E667F3BCD
  %div48 = fdiv double %3, %mul47
  %call49 = tail call double @erfc(double noundef %div48) #28, !tbaa !46
  %mul50 = fmul double %mul41, %call49
  %7 = tail call double @llvm.fmuladd.f64(double %mul36, double %call3, double %mul50)
  %call55 = tail call double @pow(double noundef %div1, double noundef %mul21) #28, !tbaa !46
  %mul56 = fmul double %call55, 0x3FFC5BF891B4EF6B
  %mul57 = fmul double %S, %mul56
  %div65 = fdiv double %5, %mul47
  %call66 = tail call double @erfc(double noundef %div65) #28, !tbaa !46
  %mul69 = fmul double %call2, 2.000000e+00
  %8 = tail call double @llvm.fmuladd.f64(double %gamma, double %v, double %mul69)
  %9 = fneg double %call66
  %neg71 = fmul double %mul57, %9
  %10 = tail call double @llvm.fmuladd.f64(double %neg71, double %8, double %7)
  %mul72 = fmul double %call7, %10
  %mul73 = fmul double %I, 2.000000e+00
  %mul75 = fmul double %mul73, 0x3FFC5BF891B4EF6A
  %mul76 = fmul double %mul75, %v
  %div77 = fdiv double %mul72, %mul76
  ret double %div77
}